; Function Attrs: mustprogress uwtable
define noundef range(i32 -1, 65536) i32 @_ZNK6icu_7714TimeZoneFormat35parseOffsetFieldWithLocalizedDigitsERKNS_13UnicodeStringEihhttRi(ptr noundef nonnull readonly align 8 captures(none) dereferenceable(1024) %0, ptr noundef nonnull align 8 dereferenceable(64) %1, i32 noundef %2, i8 noundef zeroext %3, i8 noundef zeroext %4, i16 noundef zeroext %5, i16 noundef zeroext %6, ptr noundef nonnull writeonly align 4 captures(none) dereferenceable(4) initializes((0, 4)) %7) local_unnamed_addr #1 align 2 {
  store i32 0, ptr %7, align 4, !tbaa !12
  %9 = getelementptr inbounds nuw i8, ptr %1, i64 8
  %10 = getelementptr inbounds nuw i8, ptr %1, i64 12
  %11 = zext i8 %4 to i32
  %12 = load i16, ptr %9, align 8, !tbaa !23
  %13 = icmp slt i16 %12, 0
  %14 = ashr i16 %12, 5
  %15 = sext i16 %14 to i32
  %16 = load i32, ptr %10, align 4
  %17 = select i1 %13, i32 %16, i32 %15
  %18 = icmp slt i32 %2, %17
  %19 = icmp ne i8 %4, 0
  %20 = and i1 %18, %19
  br i1 %20, label %.lr.ph, label %.thread

.lr.ph:                                           ; preds = %8
  %21 = getelementptr inbounds nuw i8, ptr %0, i64 720
  %22 = zext i16 %6 to i32
  br label %23

23:                                               ; preds = %.lr.ph, %37
  %.052 = phi i32 [ 0, %.lr.ph ], [ %35, %37 ]
  %.02751 = phi i32 [ 0, %.lr.ph ], [ %38, %37 ]
  %.03150 = phi i32 [ %2, %.lr.ph ], [ %33, %37 ]
  %24 = tail call noundef i32 @_ZNK6icu_7713UnicodeString8char32AtEi(ptr noundef nonnull align 8 dereferenceable(64) %1, i32 noundef %.03150)
  br label %25

25:                                               ; preds = %29, %23
  %indvars.iv.i = phi i64 [ 0, %23 ], [ %indvars.iv.next.i, %29 ]
  %26 = getelementptr inbounds nuw [10 x i32], ptr %21, i64 0, i64 %indvars.iv.i
  %27 = load i32, ptr %26, align 4, !tbaa !12
  %28 = icmp eq i32 %24, %27
  br i1 %28, label %_ZNK6icu_7714TimeZoneFormat25parseSingleLocalizedDigitERKNS_13UnicodeStringEiRi.exit, label %29

29:                                               ; preds = %25
  %indvars.iv.next.i = add nuw nsw i64 %indvars.iv.i, 1
  %exitcond.not.i = icmp eq i64 %indvars.iv.next.i, 10
  br i1 %exitcond.not.i, label %30, label %25, !llvm.loop !100

30:                                               ; preds = %29
  %31 = tail call i32 @u_charDigitValue_77(i32 noundef %24)
  %or.cond.i = icmp ult i32 %31, 10
  br i1 %or.cond.i, label %_ZNK6icu_7714TimeZoneFormat25parseSingleLocalizedDigitERKNS_13UnicodeStringEiRi.exit.thread41, label %.thread

_ZNK6icu_7714TimeZoneFormat25parseSingleLocalizedDigitERKNS_13UnicodeStringEiRi.exit: ; preds = %25
  %32 = trunc nuw nsw i64 %indvars.iv.i to i32
  br label %_ZNK6icu_7714TimeZoneFormat25parseSingleLocalizedDigitERKNS_13UnicodeStringEiRi.exit.thread41

_ZNK6icu_7714TimeZoneFormat25parseSingleLocalizedDigitERKNS_13UnicodeStringEiRi.exit.thread41: ; preds = %30, %_ZNK6icu_7714TimeZoneFormat25parseSingleLocalizedDigitERKNS_13UnicodeStringEiRi.exit
  %.2.ph.i43 = phi i32 [ %32, %_ZNK6icu_7714TimeZoneFormat25parseSingleLocalizedDigitERKNS_13UnicodeStringEiRi.exit ], [ %31, %30 ]
  %33 = tail call noundef i32 @_ZNK6icu_7713UnicodeString11moveIndex32Eii(ptr noundef nonnull align 8 dereferenceable(64) %1, i32 noundef %.03150, i32 noundef 1)
  %34 = mul nuw nsw i32 %.052, 10
  %35 = add nuw nsw i32 %.2.ph.i43, %34
  %36 = icmp samesign ugt i32 %35, %22
  br i1 %36, label %.thread, label %37

37:                                               ; preds = %_ZNK6icu_7714TimeZoneFormat25parseSingleLocalizedDigitERKNS_13UnicodeStringEiRi.exit.thread41
  %38 = add nuw nsw i32 %.02751, 1
  %39 = load i16, ptr %9, align 8, !tbaa !23
  %40 = icmp slt i16 %39, 0
  %41 = ashr i16 %39, 5
  %42 = sext i16 %41 to i32
  %43 = load i32, ptr %10, align 4
  %44 = select i1 %40, i32 %43, i32 %42
  %45 = icmp slt i32 %33, %44
  %46 = icmp samesign ult i32 %38, %11
  %47 = select i1 %45, i1 %46, i1 false
  br i1 %47, label %23, label %.thread

.thread:                                          ; preds = %37, %_ZNK6icu_7714TimeZoneFormat25parseSingleLocalizedDigitERKNS_13UnicodeStringEiRi.exit.thread41, %30, %8
  %.031.lcssa = phi i32 [ %2, %8 ], [ %.03150, %30 ], [ %.03150, %_ZNK6icu_7714TimeZoneFormat25parseSingleLocalizedDigitERKNS_13UnicodeStringEiRi.exit.thread41 ], [ %33, %37 ]
  %.027.lcssa = phi i32 [ 0, %8 ], [ %.02751, %30 ], [ %.02751, %_ZNK6icu_7714TimeZoneFormat25parseSingleLocalizedDigitERKNS_13UnicodeStringEiRi.exit.thread41 ], [ %38, %37 ]
  %.0.lcssa = phi i32 [ 0, %8 ], [ %.052, %30 ], [ %.052, %_ZNK6icu_7714TimeZoneFormat25parseSingleLocalizedDigitERKNS_13UnicodeStringEiRi.exit.thread41 ], [ %35, %37 ]
  %48 = zext i8 %3 to i32
  %49 = icmp samesign ult i32 %.027.lcssa, %48
  %50 = zext i16 %5 to i32
  %51 = icmp slt i32 %.0.lcssa, %50
  %or.cond = or i1 %49, %51
  br i1 %or.cond, label %54, label %52

52:                                               ; preds = %.thread
  %53 = sub nsw i32 %.031.lcssa, %2
  store i32 %53, ptr %7, align 4, !tbaa !12
  br label %54

54:                                               ; preds = %.thread, %52
  %.4 = phi i32 [ %.0.lcssa, %52 ], [ -1, %.thread ]
  ret i32 %.4
}